target datalayout = "e-m:e-p270:32:32-p271:32:32-p272:64:64-i64:64-i128:128-f80:128-n8:16:32:64-S128"
target triple = "x86_64-pc-linux-gnu"

@SimulateWantWriteIOSendCb.wantWriteFlag = internal global i32 1, align 4

; Function Attrs: inlinehint nounwind uwtable
define internal i32 @SimulateWantWriteIOSendCb(ptr noundef %0, ptr noundef %1, i32 noundef %2, ptr noundef %3) #2 {
  %5 = alloca i32, align 4
  %6 = alloca ptr, align 8
  %7 = alloca ptr, align 8
  %8 = alloca i32, align 4
  %9 = alloca ptr, align 8
  %10 = alloca i32, align 4
  %11 = alloca i32, align 4
  %12 = alloca i32, align 4
  %13 = alloca i32, align 4
  store ptr %0, ptr %6, align 8, !tbaa !12
  store ptr %1, ptr %7, align 8, !tbaa !18
  store i32 %2, ptr %8, align 4, !tbaa !8
  store ptr %3, ptr %9, align 8, !tbaa !4
  call void @llvm.lifetime.start.p0(i64 4, ptr %10) #13
  %14 = load ptr, ptr %9, align 8, !tbaa !4
  %15 = load i32, ptr %14, align 4, !tbaa !8
  store i32 %15, ptr %10, align 4, !tbaa !8
  %16 = load i32, ptr @SimulateWantWriteIOSendCb.wantWriteFlag, align 4, !tbaa !8
  %17 = icmp ne i32 %16, 0
  br i1 %17, label %51, label %18

18:                                               ; preds = %4
  call void @llvm.lifetime.start.p0(i64 4, ptr %11) #13
  store i32 1, ptr @SimulateWantWriteIOSendCb.wantWriteFlag, align 4, !tbaa !8
  %19 = load i32, ptr %10, align 4, !tbaa !8
  %20 = load ptr, ptr %7, align 8, !tbaa !18
  %21 = load i32, ptr %8, align 4, !tbaa !8
  %22 = call i32 @wolfIO_Send(i32 noundef %19, ptr noundef %20, i32 noundef %21, i32 noundef 0)
  store i32 %22, ptr %11, align 4, !tbaa !8
  %23 = load i32, ptr %11, align 4, !tbaa !8
  %24 = icmp slt i32 %23, 0
  br i1 %24, label %25, label %48

25:                                               ; preds = %18
  call void @llvm.lifetime.start.p0(i64 4, ptr %12) #13
  %26 = call ptr @__errno_location() #17
  %27 = load i32, ptr %26, align 4, !tbaa !8
  store i32 %27, ptr %12, align 4, !tbaa !8
  %28 = load i32, ptr %12, align 4, !tbaa !8
  %29 = icmp eq i32 %28, 11
  br i1 %29, label %33, label %30

30:                                               ; preds = %25
  %31 = load i32, ptr %12, align 4, !tbaa !8
  %32 = icmp eq i32 %31, 11
  br i1 %32, label %33, label %34

33:                                               ; preds = %30, %25
  store i32 -2, ptr %5, align 4
  store i32 1, ptr %13, align 4
  br label %47

34:                                               ; preds = %30
  %35 = load i32, ptr %12, align 4, !tbaa !8
  %36 = icmp eq i32 %35, 104
  br i1 %36, label %37, label %38

37:                                               ; preds = %34
  store i32 -3, ptr %5, align 4
  store i32 1, ptr %13, align 4
  br label %47

38:                                               ; preds = %34
  %39 = load i32, ptr %12, align 4, !tbaa !8
  %40 = icmp eq i32 %39, 4
  br i1 %40, label %41, label %42

41:                                               ; preds = %38
  store i32 -4, ptr %5, align 4
  store i32 1, ptr %13, align 4
  br label %47

42:                                               ; preds = %38
  %43 = load i32, ptr %12, align 4, !tbaa !8
  %44 = icmp eq i32 %43, 32
  br i1 %44, label %45, label %46

45:                                               ; preds = %42
  store i32 -5, ptr %5, align 4
  store i32 1, ptr %13, align 4
  br label %47

46:                                               ; preds = %42
  store i32 -1, ptr %5, align 4
  store i32 1, ptr %13, align 4
  br label %47

47:                                               ; preds = %46, %45, %41, %37, %33
  call void @llvm.lifetime.end.p0(i64 4, ptr %12) #13
  br label %50

48:                                               ; preds = %18
  %49 = load i32, ptr %11, align 4, !tbaa !8
  store i32 %49, ptr %5, align 4
  store i32 1, ptr %13, align 4
  br label %50

50:                                               ; preds = %48, %47
  call void @llvm.lifetime.end.p0(i64 4, ptr %11) #13
  br label %52

51:                                               ; preds = %4
  store i32 0, ptr @SimulateWantWriteIOSendCb.wantWriteFlag, align 4, !tbaa !8
  store i32 -2, ptr %5, align 4
  store i32 1, ptr %13, align 4
  br label %52

52:                                               ; preds = %51, %50
  call void @llvm.lifetime.end.p0(i64 4, ptr %10) #13
  %53 = load i32, ptr %5, align 4
  ret i32 %53
}